target datalayout = "e-m:e-p270:32:32-p271:32:32-p272:64:64-i64:64-i128:128-f80:128-n8:16:32:64-S128"
target triple = "x86_64-pc-linux-gnu"

%"class.std::__weak_count" = type { ptr }
%"class.std::shared_ptr.7" = type { %"class.std::__shared_ptr.8" }
%"class.std::__shared_ptr.8" = type { ptr, %"class.std::__shared_count" }
%"class.std::__shared_count" = type { ptr }
%"class.arrow::DataType" = type { %"class.arrow::detail::Fingerprintable", %"class.std::enable_shared_from_this.21", i32, %"class.std::vector.26" }
%"class.arrow::detail::Fingerprintable" = type { ptr, %"struct.std::atomic", %"struct.std::atomic" }
%"struct.std::atomic" = type { %"struct.std::__atomic_base" }
%"struct.std::__atomic_base" = type { ptr }
%"class.std::enable_shared_from_this.21" = type { %"class.std::weak_ptr.22" }
%"class.std::weak_ptr.22" = type { %"class.std::__weak_ptr.23" }
%"class.std::__weak_ptr.23" = type { ptr, %"class.std::__weak_count" }
%"class.std::vector.26" = type { %"struct.std::_Vector_base.27" }
%"struct.std::_Vector_base.27" = type { %"struct.std::_Vector_base<std::shared_ptr<arrow::Field>, std::allocator<std::shared_ptr<arrow::Field>>>::_Vector_impl" }
%"struct.std::_Vector_base<std::shared_ptr<arrow::Field>, std::allocator<std::shared_ptr<arrow::Field>>>::_Vector_impl" = type { %"struct.std::_Vector_base<std::shared_ptr<arrow::Field>, std::allocator<std::shared_ptr<arrow::Field>>>::_Vector_impl_data" }
%"struct.std::_Vector_base<std::shared_ptr<arrow::Field>, std::allocator<std::shared_ptr<arrow::Field>>>::_Vector_impl_data" = type { ptr, ptr, ptr }
%"class.std::__cxx11::basic_string" = type { %"struct.std::__cxx11::basic_string<char>::_Alloc_hider", i64, %union.anon }
%"struct.std::__cxx11::basic_string<char>::_Alloc_hider" = type { ptr }
%union.anon = type { i64, [8 x i8] }
%"class.__gnu_cxx::__normal_iterator" = type { ptr }
%"class.arrow::Field" = type { %"class.arrow::detail::Fingerprintable", %"class.std::__cxx11::basic_string", %"class.std::shared_ptr.7", i8, %"class.std::shared_ptr.59" }
%"class.std::shared_ptr.59" = type { %"class.std::__shared_ptr.60" }
%"class.std::__shared_ptr.60" = type { ptr, %"class.std::__shared_count" }
%"class.std::shared_ptr.54" = type { %"class.std::__shared_ptr.55" }
%"class.std::__shared_ptr.55" = type { ptr, %"class.std::__shared_count" }

; Function Attrs: mustprogress nounwind uwtable
define linkonce_odr noundef ptr @_ZNKSt12__shared_ptrIN5arrow8DataTypeELN9__gnu_cxx12_Lock_policyE2EE3getEv(ptr noundef nonnull align 8 dereferenceable(16) %0) #0 comdat align 2 {
  %2 = alloca ptr, align 8
  store ptr %0, ptr %2, align 8, !tbaa !117
  %3 = load ptr, ptr %2, align 8
  %4 = getelementptr inbounds nuw %"class.std::__shared_ptr.8", ptr %3, i32 0, i32 0
  %5 = load ptr, ptr %4, align 8, !tbaa !193
  ret ptr %5
}

; Function Attrs: mustprogress nounwind uwtable
define linkonce_odr noundef ptr @_ZNKSt12__shared_ptrIN5arrow5FieldELN9__gnu_cxx12_Lock_policyE2EE3getEv(ptr noundef nonnull align 8 dereferenceable(16) %0) #0 comdat align 2 {
  %2 = alloca ptr, align 8
  store ptr %0, ptr %2, align 8, !tbaa !208
  %3 = load ptr, ptr %2, align 8
  %4 = getelementptr inbounds nuw %"class.std::__shared_ptr.55", ptr %3, i32 0, i32 0
  %5 = load ptr, ptr %4, align 8, !tbaa !210
  ret ptr %5
}

; Function Attrs: mustprogress nounwind uwtable
define linkonce_odr noundef ptr @_ZNKSt19__shared_ptr_accessIN5arrow8DataTypeELN9__gnu_cxx12_Lock_policyE2ELb0ELb0EE6_M_getEv(ptr noundef nonnull align 1 dereferenceable(1) %0) #0 comdat align 2 {
  %2 = alloca ptr, align 8
  store ptr %0, ptr %2, align 8, !tbaa !99
  %3 = load ptr, ptr %2, align 8
  %4 = call noundef ptr @_ZNKSt12__shared_ptrIN5arrow8DataTypeELN9__gnu_cxx12_Lock_policyE2EE3getEv(ptr noundef nonnull align 8 dereferenceable(16) %3) #20
  ret ptr %4
}

; Function Attrs: mustprogress nounwind uwtable
define linkonce_odr noundef ptr @_ZNKSt19__shared_ptr_accessIN5arrow5FieldELN9__gnu_cxx12_Lock_policyE2ELb0ELb0EE6_M_getEv(ptr noundef nonnull align 1 dereferenceable(1) %0) #0 comdat align 2 {
  %2 = alloca ptr, align 8
  store ptr %0, ptr %2, align 8, !tbaa !202
  %3 = load ptr, ptr %2, align 8
  %4 = call noundef ptr @_ZNKSt12__shared_ptrIN5arrow5FieldELN9__gnu_cxx12_Lock_policyE2EE3getEv(ptr noundef nonnull align 8 dereferenceable(16) %3) #20
  ret ptr %4
}

; Function Attrs: mustprogress nounwind uwtable
define linkonce_odr noundef nonnull align 8 dereferenceable(8) ptr @_ZNK9__gnu_cxx17__normal_iteratorIPKSt10shared_ptrIN5arrow5FieldEESt6vectorIS4_SaIS4_EEE4baseEv(ptr noundef nonnull align 8 dereferenceable(8) %0) #0 comdat align 2 {
  %2 = alloca ptr, align 8
  store ptr %0, ptr %2, align 8, !tbaa !198
  %3 = load ptr, ptr %2, align 8
  %4 = getelementptr inbounds nuw %"class.__gnu_cxx::__normal_iterator", ptr %3, i32 0, i32 0
  ret ptr %4
}

; Function Attrs: mustprogress nounwind uwtable
define linkonce_odr void @_ZN9__gnu_cxx17__normal_iteratorIPKSt10shared_ptrIN5arrow5FieldEESt6vectorIS4_SaIS4_EEEC2ERKS6_(ptr noundef nonnull align 8 dereferenceable(8) %0, ptr noundef nonnull align 8 dereferenceable(8) %1) unnamed_addr #0 comdat align 2 {
  %3 = alloca ptr, align 8
  %4 = alloca ptr, align 8
  store ptr %0, ptr %3, align 8, !tbaa !198
  store ptr %1, ptr %4, align 8, !tbaa !206
  %5 = load ptr, ptr %3, align 8
  %6 = getelementptr inbounds nuw %"class.__gnu_cxx::__normal_iterator", ptr %5, i32 0, i32 0
  %7 = load ptr, ptr %4, align 8, !tbaa !206
  %8 = load ptr, ptr %7, align 8, !tbaa !197
  store ptr %8, ptr %6, align 8, !tbaa !200
  ret void
}

; Function Attrs: mustprogress nounwind uwtable
define linkonce_odr noundef nonnull align 8 dereferenceable(8) ptr @_ZN9__gnu_cxx17__normal_iteratorIPKSt10shared_ptrIN5arrow5FieldEESt6vectorIS4_SaIS4_EEEppEv(ptr noundef nonnull align 8 dereferenceable(8) %0) #0 comdat align 2 {
  %2 = alloca ptr, align 8
  store ptr %0, ptr %2, align 8, !tbaa !198
  %3 = load ptr, ptr %2, align 8
  %4 = getelementptr inbounds nuw %"class.__gnu_cxx::__normal_iterator", ptr %3, i32 0, i32 0
  %5 = load ptr, ptr %4, align 8, !tbaa !200
  %6 = getelementptr inbounds nuw %"class.std::shared_ptr.54", ptr %5, i32 1
  store ptr %6, ptr %4, align 8, !tbaa !200
  ret ptr %3
}

; Function Attrs: mustprogress nounwind uwtable
define linkonce_odr noundef nonnull align 8 dereferenceable(72) ptr @_ZNKSt19__shared_ptr_accessIN5arrow8DataTypeELN9__gnu_cxx12_Lock_policyE2ELb0ELb0EEdeEv(ptr noundef nonnull align 1 dereferenceable(1) %0) #0 comdat align 2 {
  %2 = alloca ptr, align 8
  store ptr %0, ptr %2, align 8, !tbaa !99
  %3 = load ptr, ptr %2, align 8
  br label %4

4:                                                ; preds = %1
  br label %5

5:                                                ; preds = %4
  br label %6

6:                                                ; preds = %5
  %7 = call noundef ptr @_ZNKSt19__shared_ptr_accessIN5arrow8DataTypeELN9__gnu_cxx12_Lock_policyE2ELb0ELb0EE6_M_getEv(ptr noundef nonnull align 1 dereferenceable(1) %3) #20
  ret ptr %7
}

; Function Attrs: mustprogress nounwind uwtable
define linkonce_odr noundef nonnull align 8 dereferenceable(16) ptr @_ZNK5arrow5Field4typeEv(ptr noundef nonnull align 8 dereferenceable(96) %0) #0 comdat align 2 {
  %2 = alloca ptr, align 8
  store ptr %0, ptr %2, align 8, !tbaa !204
  %3 = load ptr, ptr %2, align 8
  %4 = getelementptr inbounds nuw %"class.arrow::Field", ptr %3, i32 0, i32 2
  ret ptr %4
}

; Function Attrs: mustprogress nounwind uwtable
define linkonce_odr noundef ptr @_ZNKSt19__shared_ptr_accessIN5arrow5FieldELN9__gnu_cxx12_Lock_policyE2ELb0ELb0EEptEv(ptr noundef nonnull align 1 dereferenceable(1) %0) #0 comdat align 2 {
  %2 = alloca ptr, align 8
  store ptr %0, ptr %2, align 8, !tbaa !202
  %3 = load ptr, ptr %2, align 8
  %4 = call noundef ptr @_ZNKSt19__shared_ptr_accessIN5arrow5FieldELN9__gnu_cxx12_Lock_policyE2ELb0ELb0EE6_M_getEv(ptr noundef nonnull align 1 dereferenceable(1) %3) #20
  ret ptr %4
}

; Function Attrs: mustprogress nounwind uwtable
define linkonce_odr noundef nonnull align 8 dereferenceable(16) ptr @_ZNK9__gnu_cxx17__normal_iteratorIPKSt10shared_ptrIN5arrow5FieldEESt6vectorIS4_SaIS4_EEEdeEv(ptr noundef nonnull align 8 dereferenceable(8) %0) #0 comdat align 2 {
  %2 = alloca ptr, align 8
  store ptr %0, ptr %2, align 8, !tbaa !198
  %3 = load ptr, ptr %2, align 8
  %4 = getelementptr inbounds nuw %"class.__gnu_cxx::__normal_iterator", ptr %3, i32 0, i32 0
  %5 = load ptr, ptr %4, align 8, !tbaa !200
  ret ptr %5
}

; Function Attrs: inlinehint mustprogress nounwind uwtable
define linkonce_odr noundef zeroext i1 @_ZN9__gnu_cxxneIPKSt10shared_ptrIN5arrow5FieldEESt6vectorIS4_SaIS4_EEEEbRKNS_17__normal_iteratorIT_T0_EESF_(ptr noundef nonnull align 8 dereferenceable(8) %0, ptr noundef nonnull align 8 dereferenceable(8) %1) #5 comdat {
  %3 = alloca ptr, align 8
  %4 = alloca ptr, align 8
  store ptr %0, ptr %3, align 8, !tbaa !198
  store ptr %1, ptr %4, align 8, !tbaa !198
  %5 = load ptr, ptr %3, align 8, !tbaa !198
  %6 = call noundef nonnull align 8 dereferenceable(8) ptr @_ZNK9__gnu_cxx17__normal_iteratorIPKSt10shared_ptrIN5arrow5FieldEESt6vectorIS4_SaIS4_EEE4baseEv(ptr noundef nonnull align 8 dereferenceable(8) %5) #20
  %7 = load ptr, ptr %6, align 8, !tbaa !197
  %8 = load ptr, ptr %4, align 8, !tbaa !198
  %9 = call noundef nonnull align 8 dereferenceable(8) ptr @_ZNK9__gnu_cxx17__normal_iteratorIPKSt10shared_ptrIN5arrow5FieldEESt6vectorIS4_SaIS4_EEE4baseEv(ptr noundef nonnull align 8 dereferenceable(8) %8) #20
  %10 = load ptr, ptr %9, align 8, !tbaa !197
  %11 = icmp ne ptr %7, %10
  ret i1 %11
}

; Function Attrs: mustprogress nounwind uwtable
define linkonce_odr ptr @_ZNKSt6vectorISt10shared_ptrIN5arrow5FieldEESaIS3_EE3endEv(ptr noundef nonnull align 8 dereferenceable(24) %0) #0 comdat align 2 {
  %2 = alloca %"class.__gnu_cxx::__normal_iterator", align 8
  %3 = alloca ptr, align 8
  store ptr %0, ptr %3, align 8, !tbaa !195
  %4 = load ptr, ptr %3, align 8
  %5 = getelementptr inbounds nuw %"struct.std::_Vector_base.27", ptr %4, i32 0, i32 0
  %6 = getelementptr inbounds nuw %"struct.std::_Vector_base<std::shared_ptr<arrow::Field>, std::allocator<std::shared_ptr<arrow::Field>>>::_Vector_impl_data", ptr %5, i32 0, i32 1
  call void @_ZN9__gnu_cxx17__normal_iteratorIPKSt10shared_ptrIN5arrow5FieldEESt6vectorIS4_SaIS4_EEEC2ERKS6_(ptr noundef nonnull align 8 dereferenceable(8) %2, ptr noundef nonnull align 8 dereferenceable(8) %6) #20
  %7 = getelementptr inbounds nuw %"class.__gnu_cxx::__normal_iterator", ptr %2, i32 0, i32 0
  %8 = load ptr, ptr %7, align 8
  ret ptr %8
}

; Function Attrs: mustprogress nounwind uwtable
define linkonce_odr ptr @_ZNKSt6vectorISt10shared_ptrIN5arrow5FieldEESaIS3_EE5beginEv(ptr noundef nonnull align 8 dereferenceable(24) %0) #0 comdat align 2 {
  %2 = alloca %"class.__gnu_cxx::__normal_iterator", align 8
  %3 = alloca ptr, align 8
  store ptr %0, ptr %3, align 8, !tbaa !195
  %4 = load ptr, ptr %3, align 8
  %5 = getelementptr inbounds nuw %"struct.std::_Vector_base.27", ptr %4, i32 0, i32 0
  %6 = getelementptr inbounds nuw %"struct.std::_Vector_base<std::shared_ptr<arrow::Field>, std::allocator<std::shared_ptr<arrow::Field>>>::_Vector_impl_data", ptr %5, i32 0, i32 0
  call void @_ZN9__gnu_cxx17__normal_iteratorIPKSt10shared_ptrIN5arrow5FieldEESt6vectorIS4_SaIS4_EEEC2ERKS6_(ptr noundef nonnull align 8 dereferenceable(8) %2, ptr noundef nonnull align 8 dereferenceable(8) %6) #20
  %7 = getelementptr inbounds nuw %"class.__gnu_cxx::__normal_iterator", ptr %2, i32 0, i32 0
  %8 = load ptr, ptr %7, align 8
  ret ptr %8
}

; Function Attrs: mustprogress nounwind uwtable
define linkonce_odr noundef nonnull align 8 dereferenceable(24) ptr @_ZNK5arrow8DataType6fieldsEv(ptr noundef nonnull align 8 dereferenceable(72) %0) #0 comdat align 2 {
  %2 = alloca ptr, align 8
  store ptr %0, ptr %2, align 8, !tbaa !101
  %3 = load ptr, ptr %2, align 8
  %4 = getelementptr inbounds nuw %"class.arrow::DataType", ptr %3, i32 0, i32 3
  ret ptr %4
}

; Function Attrs: mustprogress nounwind uwtable
define linkonce_odr noundef i32 @_ZNK5arrow8DataType2idEv(ptr noundef nonnull align 8 dereferenceable(72) %0) #0 comdat align 2 {
  %2 = alloca ptr, align 8
  store ptr %0, ptr %2, align 8, !tbaa !101
  %3 = load ptr, ptr %2, align 8
  %4 = getelementptr inbounds nuw %"class.arrow::DataType", ptr %3, i32 0, i32 2
  %5 = load i32, ptr %4, align 8, !tbaa !102
  ret i32 %5
}

; Function Attrs: inlinehint mustprogress uwtable
define internal noundef zeroext i1 @_ZN5arrow12_GLOBAL__N_135IdentityImpliesEqualityNansNotEqualERKNS_8DataTypeE(ptr noundef nonnull align 8 dereferenceable(72) %0) #4 {
  %2 = alloca i1, align 1
  %3 = alloca ptr, align 8
  %4 = alloca ptr, align 8
  %5 = alloca %"class.__gnu_cxx::__normal_iterator", align 8
  %6 = alloca %"class.__gnu_cxx::__normal_iterator", align 8
  %7 = alloca i32, align 4
  %8 = alloca ptr, align 8
  store ptr %0, ptr %3, align 8, !tbaa !101
  %9 = load ptr, ptr %3, align 8, !tbaa !101
  %10 = call noundef i32 @_ZNK5arrow8DataType2idEv(ptr noundef nonnull align 8 dereferenceable(72) %9)
  %11 = icmp eq i32 %10, 11
  br i1 %11, label %16, label %12

12:                                               ; preds = %1
  %13 = load ptr, ptr %3, align 8, !tbaa !101
  %14 = call noundef i32 @_ZNK5arrow8DataType2idEv(ptr noundef nonnull align 8 dereferenceable(72) %13)
  %15 = icmp eq i32 %14, 12
  br i1 %15, label %16, label %17

16:                                               ; preds = %12, %1
  store i1 false, ptr %2, align 1
  br label %46

17:                                               ; preds = %12
  call void @llvm.lifetime.start.p0(i64 8, ptr %4) #20
  %18 = load ptr, ptr %3, align 8, !tbaa !101
  %19 = call noundef nonnull align 8 dereferenceable(24) ptr @_ZNK5arrow8DataType6fieldsEv(ptr noundef nonnull align 8 dereferenceable(72) %18)
  store ptr %19, ptr %4, align 8, !tbaa !195
  call void @llvm.lifetime.start.p0(i64 8, ptr %5) #20
  %20 = load ptr, ptr %4, align 8, !tbaa !195
  %21 = call ptr @_ZNKSt6vectorISt10shared_ptrIN5arrow5FieldEESaIS3_EE5beginEv(ptr noundef nonnull align 8 dereferenceable(24) %20) #20
  %22 = getelementptr inbounds nuw %"class.__gnu_cxx::__normal_iterator", ptr %5, i32 0, i32 0
  store ptr %21, ptr %22, align 8
  call void @llvm.lifetime.start.p0(i64 8, ptr %6) #20
  %23 = load ptr, ptr %4, align 8, !tbaa !195
  %24 = call ptr @_ZNKSt6vectorISt10shared_ptrIN5arrow5FieldEESaIS3_EE3endEv(ptr noundef nonnull align 8 dereferenceable(24) %23) #20
  %25 = getelementptr inbounds nuw %"class.__gnu_cxx::__normal_iterator", ptr %6, i32 0, i32 0
  store ptr %24, ptr %25, align 8
  br label %26

26:                                               ; preds = %41, %17
  %27 = call noundef zeroext i1 @_ZN9__gnu_cxxneIPKSt10shared_ptrIN5arrow5FieldEESt6vectorIS4_SaIS4_EEEEbRKNS_17__normal_iteratorIT_T0_EESF_(ptr noundef nonnull align 8 dereferenceable(8) %5, ptr noundef nonnull align 8 dereferenceable(8) %6) #20
  br i1 %27, label %29, label %28

28:                                               ; preds = %26
  store i32 2, ptr %7, align 4
  br label %43

29:                                               ; preds = %26
  call void @llvm.lifetime.start.p0(i64 8, ptr %8) #20
  %30 = call noundef nonnull align 8 dereferenceable(16) ptr @_ZNK9__gnu_cxx17__normal_iteratorIPKSt10shared_ptrIN5arrow5FieldEESt6vectorIS4_SaIS4_EEEdeEv(ptr noundef nonnull align 8 dereferenceable(8) %5) #20
  store ptr %30, ptr %8, align 8, !tbaa !197
  %31 = load ptr, ptr %8, align 8, !tbaa !197
  %32 = call noundef ptr @_ZNKSt19__shared_ptr_accessIN5arrow5FieldELN9__gnu_cxx12_Lock_policyE2ELb0ELb0EEptEv(ptr noundef nonnull align 1 dereferenceable(1) %31) #20
  %33 = call noundef nonnull align 8 dereferenceable(16) ptr @_ZNK5arrow5Field4typeEv(ptr noundef nonnull align 8 dereferenceable(96) %32)
  %34 = call noundef nonnull align 8 dereferenceable(72) ptr @_ZNKSt19__shared_ptr_accessIN5arrow8DataTypeELN9__gnu_cxx12_Lock_policyE2ELb0ELb0EEdeEv(ptr noundef nonnull align 1 dereferenceable(1) %33) #20
  %35 = call noundef zeroext i1 @_ZN5arrow12_GLOBAL__N_135IdentityImpliesEqualityNansNotEqualERKNS_8DataTypeE(ptr noundef nonnull align 8 dereferenceable(72) %34)
  br i1 %35, label %37, label %36

36:                                               ; preds = %29
  store i1 false, ptr %2, align 1
  store i32 1, ptr %7, align 4
  br label %38

37:                                               ; preds = %29
  store i32 0, ptr %7, align 4
  br label %38

38:                                               ; preds = %37, %36
  call void @llvm.lifetime.end.p0(i64 8, ptr %8) #20
  %39 = load i32, ptr %7, align 4
  switch i32 %39, label %43 [
    i32 0, label %40
  ]

40:                                               ; preds = %38
  br label %41

41:                                               ; preds = %40
  %42 = call noundef nonnull align 8 dereferenceable(8) ptr @_ZN9__gnu_cxx17__normal_iteratorIPKSt10shared_ptrIN5arrow5FieldEESt6vectorIS4_SaIS4_EEEppEv(ptr noundef nonnull align 8 dereferenceable(8) %5) #20
  br label %26

43:                                               ; preds = %38, %28
  call void @llvm.lifetime.end.p0(i64 8, ptr %6) #20
  call void @llvm.lifetime.end.p0(i64 8, ptr %5) #20
  call void @llvm.lifetime.end.p0(i64 8, ptr %4) #20
  %44 = load i32, ptr %7, align 4
  switch i32 %44, label %48 [
    i32 2, label %45
    i32 1, label %46
  ]

45:                                               ; preds = %43
  store i1 true, ptr %2, align 1
  br label %46

46:                                               ; preds = %45, %43, %16
  %47 = load i1, ptr %2, align 1
  ret i1 %47

48:                                               ; preds = %43
  unreachable
}