; Function Attrs: inlinehint mustprogress nofree nosync nounwind willreturn memory(read, inaccessiblemem: none) uwtable
define internal fastcc noundef zeroext i1 @_ZN5arrow12_GLOBAL__N_135IdentityImpliesEqualityNansNotEqualERKNS_8DataTypeE(ptr noundef nonnull readonly align 8 captures(none) dereferenceable(72) %0) unnamed_addr #4 {
  %2 = getelementptr inbounds nuw i8, ptr %0, i64 40
  %3 = load i32, ptr %2, align 8, !tbaa !41
  %.off = add i32 %3, -11
  %switch13 = icmp ult i32 %.off, 2
  br i1 %switch13, label %.loopexit, label %4

4:                                                ; preds = %1
  %5 = getelementptr inbounds nuw i8, ptr %0, i64 48
  %6 = load ptr, ptr %5, align 8, !tbaa !650
  %7 = getelementptr inbounds nuw i8, ptr %0, i64 56
  %8 = load ptr, ptr %7, align 8, !tbaa !650
  %.not14 = icmp eq ptr %6, %8
  br i1 %.not14, label %.loopexit, label %.lr.ph

.lr.ph:                                           ; preds = %4, %.lr.ph
  %.sroa.010.015 = phi ptr [ %13, %.lr.ph ], [ %6, %4 ]
  %9 = load ptr, ptr %.sroa.010.015, align 8, !tbaa !455
  %10 = getelementptr inbounds nuw i8, ptr %9, i64 56
  %11 = load ptr, ptr %10, align 8, !tbaa !38
  %12 = tail call fastcc noundef zeroext i1 @_ZN5arrow12_GLOBAL__N_135IdentityImpliesEqualityNansNotEqualERKNS_8DataTypeE(ptr noundef nonnull align 8 dereferenceable(72) %11)
  %13 = getelementptr inbounds nuw i8, ptr %.sroa.010.015, i64 16
  %.not = icmp ne ptr %13, %8
  %or.cond.not = select i1 %12, i1 %.not, i1 false
  br i1 %or.cond.not, label %.lr.ph, label %.loopexit

.loopexit:                                        ; preds = %.lr.ph, %4, %1
  %.0 = phi i1 [ false, %1 ], [ true, %4 ], [ %12, %.lr.ph ]
  ret i1 %.0
}